target datalayout = "e-m:e-p270:32:32-p271:32:32-p272:64:64-i64:64-i128:128-f80:128-n8:16:32:64-S128"
target triple = "x86_64-pc-linux-gnu"

%struct.ID3v2EncContext = type { i32, i64, i32 }

; Function Attrs: alwaysinline nounwind uwtable
define internal i64 @avio_tell(ptr noundef %0) #2 {
  %2 = alloca ptr, align 8
  store ptr %0, ptr %2, align 8, !tbaa !9
  %3 = load ptr, ptr %2, align 8, !tbaa !9
  %4 = call i64 @avio_seek(ptr noundef %3, i64 noundef 0, i32 noundef 1)
  ret i64 %4
}

; Function Attrs: nounwind uwtable
define void @ff_id3v2_start(ptr noundef %0, ptr noundef %1, i32 noundef %2, ptr noundef %3) #0 {
  %5 = alloca ptr, align 8
  %6 = alloca ptr, align 8
  %7 = alloca i32, align 4
  %8 = alloca ptr, align 8
  store ptr %0, ptr %5, align 8, !tbaa !4
  store ptr %1, ptr %6, align 8, !tbaa !9
  store i32 %2, ptr %7, align 4, !tbaa !11
  store ptr %3, ptr %8, align 8, !tbaa !13
  %9 = load i32, ptr %7, align 4, !tbaa !11
  %10 = load ptr, ptr %5, align 8, !tbaa !4
  %11 = getelementptr inbounds nuw %struct.ID3v2EncContext, ptr %10, i32 0, i32 0
  store i32 %9, ptr %11, align 8, !tbaa !15
  %12 = load ptr, ptr %6, align 8, !tbaa !9
  %13 = load i32, ptr %7, align 4, !tbaa !11
  %14 = load ptr, ptr %8, align 8, !tbaa !13
  %15 = getelementptr inbounds i8, ptr %14, i64 2
  %16 = load i8, ptr %15, align 1, !tbaa !18
  %17 = sext i8 %16 to i32
  %18 = shl i32 %17, 8
  %19 = or i32 %13, %18
  %20 = load ptr, ptr %8, align 8, !tbaa !13
  %21 = getelementptr inbounds i8, ptr %20, i64 1
  %22 = load i8, ptr %21, align 1, !tbaa !18
  %23 = sext i8 %22 to i32
  %24 = shl i32 %23, 16
  %25 = or i32 %19, %24
  %26 = load ptr, ptr %8, align 8, !tbaa !13
  %27 = getelementptr inbounds i8, ptr %26, i64 0
  %28 = load i8, ptr %27, align 1, !tbaa !18
  %29 = sext i8 %28 to i32
  %30 = shl i32 %29, 24
  %31 = or i32 %25, %30
  call void @avio_wb32(ptr noundef %12, i32 noundef %31)
  %32 = load ptr, ptr %6, align 8, !tbaa !9
  call void @avio_w8(ptr noundef %32, i32 noundef 0)
  %33 = load ptr, ptr %6, align 8, !tbaa !9
  call void @avio_w8(ptr noundef %33, i32 noundef 0)
  %34 = load ptr, ptr %6, align 8, !tbaa !9
  %35 = call i64 @avio_tell(ptr noundef %34)
  %36 = load ptr, ptr %5, align 8, !tbaa !4
  %37 = getelementptr inbounds nuw %struct.ID3v2EncContext, ptr %36, i32 0, i32 1
  store i64 %35, ptr %37, align 8, !tbaa !19
  %38 = load ptr, ptr %6, align 8, !tbaa !9
  call void @avio_wb32(ptr noundef %38, i32 noundef 0)
  ret void
}