; Function Attrs: nounwind uwtable
define void @ff_id3v2_start(ptr noundef writeonly captures(none) initializes((0, 4), (8, 16)) %0, ptr noundef %1, i32 noundef %2, ptr noundef readonly captures(none) %3) local_unnamed_addr #0 {
  store i32 %2, ptr %0, align 8, !tbaa !4
  %5 = getelementptr inbounds nuw i8, ptr %3, i64 2
  %6 = load i8, ptr %5, align 1, !tbaa !10
  %7 = sext i8 %6 to i32
  %8 = shl nsw i32 %7, 8
  %9 = getelementptr inbounds nuw i8, ptr %3, i64 1
  %10 = load i8, ptr %9, align 1, !tbaa !10
  %11 = sext i8 %10 to i32
  %12 = shl nsw i32 %11, 16
  %13 = load i8, ptr %3, align 1, !tbaa !10
  %14 = sext i8 %13 to i32
  %15 = shl nsw i32 %14, 24
  %16 = or i32 %8, %12
  %17 = or i32 %16, %15
  %18 = or i32 %17, %2
  tail call void @avio_wb32(ptr noundef %1, i32 noundef %18) #9
  tail call void @avio_w8(ptr noundef %1, i32 noundef 0) #9
  tail call void @avio_w8(ptr noundef %1, i32 noundef 0) #9
  %19 = tail call i64 @avio_seek(ptr noundef %1, i64 noundef 0, i32 noundef 1) #9
  %20 = getelementptr inbounds nuw i8, ptr %0, i64 8
  store i64 %19, ptr %20, align 8, !tbaa !11
  tail call void @avio_wb32(ptr noundef %1, i32 noundef 0) #9
  ret void
}